; Function Attrs: mustprogress uwtable
define noundef range(i32 1, 3) i32 @_ZNK3gmx26AnalysisNeighborhoodSearch4modeEv(ptr noundef nonnull readonly align 8 captures(none) dereferenceable(16) %0) local_unnamed_addr #16 align 2 {
  %2 = load ptr, ptr %0, align 8, !tbaa !187
  %.not = icmp eq ptr %2, null
  br i1 %.not, label %3, label %4

3:                                                ; preds = %1
  tail call void @_ZN3gmx8internal13assertHandlerEPKcS2_S2_S2_i(ptr noundef nonnull @.str.19, ptr noundef nonnull @.str.20, ptr noundef nonnull @"__PRETTY_FUNCTION__._ZZNK3gmx26AnalysisNeighborhoodSearch4modeEvENK3$_0clEv", ptr noundef nonnull @.str.4, i32 noundef 1358) #40
  unreachable

4:                                                ; preds = %1
  %5 = getelementptr inbounds nuw i8, ptr %2, i64 440
  %6 = load i8, ptr %5, align 8, !tbaa !87, !range !88, !noundef !89
  %7 = trunc nuw i8 %6 to i1
  %8 = select i1 %7, i32 2, i32 1
  ret i32 %8
}